(dp0
S'pt_login_sig'
p1
S'apaNY0S16OpIrBL-7IPnBcQzNPT1YMnASfv5WoGeK7-0mKGXyKxFmp9tDkvadbXh'
p2
sS'uin'
p3
S'o3483674118'
p4
sS'ptcz'
p5
S'ad3bf14f9da2738e09e498bfeb93dd9da7540dea2b7a71acfb97ed4d3da4e277'
p6
sS'pt2gguin'
p7
S'o3483674118'
p8
sS'ETK'
p9
S''
p10
sS'skey'
p11
S'@XfiadEuaD'
p12
sS'qrsig'
p13
S'ovFeJzZ2t5RasENv0kpmzzzKeoShzd3fRURw0K35fwZqDo8sQnQId7jHWEmAYpIk'
p14
sS'pgv_info'
p15
S'ssid pgv_pvid=1051433466'
p16
sS'pt_user_id'
p17
S'14466926462519289525'
p18
sS'superkey'
p19
S'SG*Z66ndgXM211hR8An4fJ0hEBPBjzhQnsBBpZqNOYQ_'
p20
sS'RK'
p21
S'OfeLBai4FB'
p22
sS'ptisp'
p23
S'cnc'
p24
sS'p_uin'
p25
S'o3483674118'
p26
sS'pt_serverip'
p27
S'a6b20af492058394'
p28
sS'pt4_token'
p29
S'xR2eUtzaUvrQuK5XfsqjzZvvT2NapFNUeAGOFaPuKTE_'
p30
sS'ptwebqq'
p31
S'fbf7cd462b791882eca144a6b774290c88cba44f0f4ba3807c998e3940ce314d'
p32
sS'pt_clientip'
p33
S'4fea71048b174e19'
p34
sS'p_skey'
p35
S'nruNtSxHZc9PTt1aOqVKYiqiQ99gd6D4yLKpekUp8Dw_'
p36
sS'superuin'
p37
S'o3483674118'
p38
sS'ptui_identifier'
p39
S'000D04BB4EB689088D3E3E83C6DA190129F3077B7476C74ACAF1648316'
p40
sS'supertoken'
p41
S'1822002389'
p42
sS'pt_recent_uins'
p43
S'3f023d58fa6d58867561f3ff78c30b0212b4d220438075a6960f3a1b257288f91c2e6df6494209eb4669f98159074a2639c687ca1c69fd08'
p44
sS'pgv_pvi'
p45
S'911366144'
p46
sS'ptnick_3483674118'
p47
S'e5b885e6b094e79a84e59388e5a3abe5a587'
p48
s.