(dp0
S'pt_login_sig'
p1
S'11QftO*XqXEsvU8nAw7SKpZkBEJFM1dC7z-N0ZGyPn0qIr6IBze5iIWlPmvG-Ey7'
p2
sS'uin'
p3
S'o3483674118'
p4
sS'ptcz'
p5
S'ad3bf14f9da2738e09e498bfeb93dd9da7540dea2b7a71acfb97ed4d3da4e277'
p6
sS'pt2gguin'
p7
S'o3483674118'
p8
sS'ETK'
p9
S''
p10
sS'skey'
p11
S'@Ylks2VZbp'
p12
sS'qrsig'
p13
S'lxYw4JOhLuq6y152YBzVYlGge8uAa4SeOechV8CspqwxyCyJdknpvvnFvU5Br767'
p14
sS'pgv_info'
p15
S'ssid pgv_pvid=1051433466'
p16
sS'pt_user_id'
p17
S'5780220259629682138'
p18
sS'superkey'
p19
S'wvjNtjmWLmVM2lofKhp-3H9qkxqbSyq01aWr-t9s3L8_'
p20
sS'RK'
p21
S'OfeLBai4FB'
p22
sS'ptisp'
p23
S'edu'
p24
sS'p_uin'
p25
S'o3483674118'
p26
sS'pt_serverip'
p27
S'fb280ab19b5d019d'
p28
sS'pt4_token'
p29
S'yu2boG-5NfWrk8pc1gRS5*9JYE5usK4UUU7UisYAIVA_'
p30
sS'ptwebqq'
p31
S'd58c3e566065ccdc55f7f70aafd2a8326bdf80aa927d3892ddcba6d14d1cbc9f'
p32
sS'pt_clientip'
p33
S'781adbd9f6028d08'
p34
sS'p_skey'
p35
S'UJYDbClL2f5lCfDYc8XZWfhMLXfYNdEh26ZrHrAGXSw_'
p36
sS'superuin'
p37
S'o3483674118'
p38
sS'ptui_identifier'
p39
S'000DB4030A9B2E5EFDF6512D3593FF65D221BC8244A09C4973714054'
p40
sS'supertoken'
p41
S'502711884'
p42
sS'pt_recent_uins'
p43
S'fd2e9bcb239c36e96d48f9b56616326843474946e42bc6386548ef2fa871b98109852c9cf5d8c8d61553366a0a27c069c466b8a93a546419'
p44
sS'pgv_pvi'
p45
S'911366144'
p46
sS'ptnick_3483674118'
p47
S'e5b885e6b094e79a84e59388e5a3abe5a587'
p48
s.